target datalayout = "e-m:e-p270:32:32-p271:32:32-p272:64:64-i64:64-i128:128-f80:128-n8:16:32:64-S128"
target triple = "x86_64-pc-linux-gnu"

%"struct.std::pair.7" = type <{ ptr, i32, [4 x i8] }>

; Function Attrs: mustprogress nounwind uwtable
define linkonce_odr void @_ZNSt4pairIPKciEC2IDniTnNSt9enable_ifIXaaclsr5_PCCPE22_MoveConstructiblePairIT_T0_EEclsr5_PCCPE30_ImplicitlyMoveConvertiblePairIS5_S6_EEEbE4typeELb1EEEOS5_OS6_(ptr noundef nonnull align 8 dereferenceable(12) %0, ptr noundef nonnull align 8 dereferenceable(8) %1, ptr noundef nonnull align 4 dereferenceable(4) %2) unnamed_addr #7 comdat align 2 {
  %4 = alloca ptr, align 8
  %5 = alloca ptr, align 8
  %6 = alloca ptr, align 8
  store ptr %0, ptr %4, align 8, !tbaa !112
  store ptr %1, ptr %5, align 8, !tbaa !45
  store ptr %2, ptr %6, align 8, !tbaa !29
  %7 = load ptr, ptr %4, align 8
  %8 = getelementptr inbounds nuw %"struct.std::pair.7", ptr %7, i32 0, i32 0
  store ptr null, ptr %8, align 8, !tbaa !114
  %9 = getelementptr inbounds nuw %"struct.std::pair.7", ptr %7, i32 0, i32 1
  %10 = load ptr, ptr %6, align 8, !tbaa !29
  %11 = load i32, ptr %10, align 4, !tbaa !19
  store i32 %11, ptr %9, align 8, !tbaa !116
  ret void
}

; Function Attrs: mustprogress nounwind uwtable
define linkonce_odr void @_ZNSt4pairIPKciEC2IS1_RjTnNSt9enable_ifIXaaclsr5_PCCPE22_MoveConstructiblePairIT_T0_EEclsr5_PCCPE30_ImplicitlyMoveConvertiblePairIS6_S7_EEEbE4typeELb1EEEOS6_OS7_(ptr noundef nonnull align 8 dereferenceable(12) %0, ptr noundef nonnull align 8 dereferenceable(8) %1, ptr noundef nonnull align 4 dereferenceable(4) %2) unnamed_addr #7 comdat align 2 {
  %4 = alloca ptr, align 8
  %5 = alloca ptr, align 8
  %6 = alloca ptr, align 8
  store ptr %0, ptr %4, align 8, !tbaa !112
  store ptr %1, ptr %5, align 8, !tbaa !54
  store ptr %2, ptr %6, align 8, !tbaa !29
  %7 = load ptr, ptr %4, align 8
  %8 = getelementptr inbounds nuw %"struct.std::pair.7", ptr %7, i32 0, i32 0
  %9 = load ptr, ptr %5, align 8, !tbaa !54
  %10 = load ptr, ptr %9, align 8, !tbaa !16
  store ptr %10, ptr %8, align 8, !tbaa !114
  %11 = getelementptr inbounds nuw %"struct.std::pair.7", ptr %7, i32 0, i32 1
  %12 = load ptr, ptr %6, align 8, !tbaa !29
  %13 = load i32, ptr %12, align 4, !tbaa !19
  store i32 %13, ptr %11, align 8, !tbaa !116
  ret void
}

; Function Attrs: mustprogress uwtable
define { ptr, i32 } @_ZN6google8protobuf8internal16ReadSizeFallbackEPKcj(ptr noundef %0, i32 noundef %1) #4 {
  %3 = alloca %"struct.std::pair.7", align 8
  %4 = alloca ptr, align 8
  %5 = alloca i32, align 4
  %6 = alloca i32, align 4
  %7 = alloca i32, align 4
  %8 = alloca i32, align 4
  %9 = alloca ptr, align 8
  %10 = alloca i32, align 4
  %11 = alloca ptr, align 8
  %12 = alloca i32, align 4
  %13 = alloca ptr, align 8
  %14 = alloca i32, align 4
  %15 = alloca ptr, align 8
  store ptr %0, ptr %4, align 8, !tbaa !16
  store i32 %1, ptr %5, align 4, !tbaa !19
  call void @llvm.lifetime.start.p0(i64 4, ptr %6) #3
  store i32 1, ptr %6, align 4, !tbaa !19
  br label %16

16:                                               ; preds = %51, %2
  %17 = load i32, ptr %6, align 4, !tbaa !19
  %18 = icmp ult i32 %17, 4
  br i1 %18, label %20, label %19

19:                                               ; preds = %16
  store i32 2, ptr %7, align 4
  br label %54

20:                                               ; preds = %16
  call void @llvm.lifetime.start.p0(i64 4, ptr %8) #3
  %21 = load ptr, ptr %4, align 8, !tbaa !16
  %22 = load i32, ptr %6, align 4, !tbaa !19
  %23 = zext i32 %22 to i64
  %24 = getelementptr inbounds nuw i8, ptr %21, i64 %23
  %25 = load i8, ptr %24, align 1, !tbaa !88
  %26 = zext i8 %25 to i32
  store i32 %26, ptr %8, align 4, !tbaa !19
  %27 = load i32, ptr %8, align 4, !tbaa !19
  %28 = sub i32 %27, 1
  %29 = load i32, ptr %6, align 4, !tbaa !19
  %30 = mul i32 7, %29
  %31 = shl i32 %28, %30
  %32 = load i32, ptr %5, align 4, !tbaa !19
  %33 = add i32 %32, %31
  store i32 %33, ptr %5, align 4, !tbaa !19
  %34 = load i32, ptr %8, align 4, !tbaa !19
  %35 = icmp ult i32 %34, 128
  %36 = xor i1 %35, true
  %37 = xor i1 %36, true
  %38 = zext i1 %37 to i64
  %39 = call i64 @llvm.expect.i64(i64 %38, i64 1)
  %40 = icmp ne i64 %39, 0
  br i1 %40, label %41, label %47

41:                                               ; preds = %20
  call void @llvm.lifetime.start.p0(i64 8, ptr %9) #3
  %42 = load ptr, ptr %4, align 8, !tbaa !16
  %43 = load i32, ptr %6, align 4, !tbaa !19
  %44 = zext i32 %43 to i64
  %45 = getelementptr inbounds nuw i8, ptr %42, i64 %44
  %46 = getelementptr inbounds i8, ptr %45, i64 1
  store ptr %46, ptr %9, align 8, !tbaa !16
  call void @_ZNSt4pairIPKciEC2IS1_RjTnNSt9enable_ifIXaaclsr5_PCCPE22_MoveConstructiblePairIT_T0_EEclsr5_PCCPE30_ImplicitlyMoveConvertiblePairIS6_S7_EEEbE4typeELb1EEEOS6_OS7_(ptr noundef nonnull align 8 dereferenceable(12) %3, ptr noundef nonnull align 8 dereferenceable(8) %9, ptr noundef nonnull align 4 dereferenceable(4) %5)
  call void @llvm.lifetime.end.p0(i64 8, ptr %9) #3
  store i32 1, ptr %7, align 4
  br label %48

47:                                               ; preds = %20
  store i32 0, ptr %7, align 4
  br label %48

48:                                               ; preds = %47, %41
  call void @llvm.lifetime.end.p0(i64 4, ptr %8) #3
  %49 = load i32, ptr %7, align 4
  switch i32 %49, label %54 [
    i32 0, label %50
  ]

50:                                               ; preds = %48
  br label %51

51:                                               ; preds = %50
  %52 = load i32, ptr %6, align 4, !tbaa !19
  %53 = add i32 %52, 1
  store i32 %53, ptr %6, align 4, !tbaa !19
  br label %16, !llvm.loop !111

54:                                               ; preds = %48, %19
  call void @llvm.lifetime.end.p0(i64 4, ptr %6) #3
  %55 = load i32, ptr %7, align 4
  switch i32 %55, label %85 [
    i32 2, label %56
    i32 1, label %83
  ]

56:                                               ; preds = %54
  call void @llvm.lifetime.start.p0(i64 4, ptr %10) #3
  %57 = load ptr, ptr %4, align 8, !tbaa !16
  %58 = getelementptr inbounds i8, ptr %57, i64 4
  %59 = load i8, ptr %58, align 1, !tbaa !88
  %60 = zext i8 %59 to i32
  store i32 %60, ptr %10, align 4, !tbaa !19
  %61 = load i32, ptr %10, align 4, !tbaa !19
  %62 = icmp uge i32 %61, 8
  %63 = zext i1 %62 to i64
  %64 = call i64 @llvm.expect.i64(i64 %63, i64 0)
  %65 = icmp ne i64 %64, 0
  br i1 %65, label %66, label %67

66:                                               ; preds = %56
  call void @llvm.lifetime.start.p0(i64 8, ptr %11) #3
  store ptr null, ptr %11, align 8, !tbaa !31
  call void @llvm.lifetime.start.p0(i64 4, ptr %12) #3
  store i32 0, ptr %12, align 4, !tbaa !19
  call void @_ZNSt4pairIPKciEC2IDniTnNSt9enable_ifIXaaclsr5_PCCPE22_MoveConstructiblePairIT_T0_EEclsr5_PCCPE30_ImplicitlyMoveConvertiblePairIS5_S6_EEEbE4typeELb1EEEOS5_OS6_(ptr noundef nonnull align 8 dereferenceable(12) %3, ptr noundef nonnull align 8 dereferenceable(8) %11, ptr noundef nonnull align 4 dereferenceable(4) %12)
  call void @llvm.lifetime.end.p0(i64 4, ptr %12) #3
  call void @llvm.lifetime.end.p0(i64 8, ptr %11) #3
  store i32 1, ptr %7, align 4
  br label %82

67:                                               ; preds = %56
  %68 = load i32, ptr %10, align 4, !tbaa !19
  %69 = sub i32 %68, 1
  %70 = shl i32 %69, 28
  %71 = load i32, ptr %5, align 4, !tbaa !19
  %72 = add i32 %71, %70
  store i32 %72, ptr %5, align 4, !tbaa !19
  %73 = load i32, ptr %5, align 4, !tbaa !19
  %74 = icmp ugt i32 %73, 2147483631
  %75 = zext i1 %74 to i64
  %76 = call i64 @llvm.expect.i64(i64 %75, i64 0)
  %77 = icmp ne i64 %76, 0
  br i1 %77, label %78, label %79

78:                                               ; preds = %67
  call void @llvm.lifetime.start.p0(i64 8, ptr %13) #3
  store ptr null, ptr %13, align 8, !tbaa !31
  call void @llvm.lifetime.start.p0(i64 4, ptr %14) #3
  store i32 0, ptr %14, align 4, !tbaa !19
  call void @_ZNSt4pairIPKciEC2IDniTnNSt9enable_ifIXaaclsr5_PCCPE22_MoveConstructiblePairIT_T0_EEclsr5_PCCPE30_ImplicitlyMoveConvertiblePairIS5_S6_EEEbE4typeELb1EEEOS5_OS6_(ptr noundef nonnull align 8 dereferenceable(12) %3, ptr noundef nonnull align 8 dereferenceable(8) %13, ptr noundef nonnull align 4 dereferenceable(4) %14)
  call void @llvm.lifetime.end.p0(i64 4, ptr %14) #3
  call void @llvm.lifetime.end.p0(i64 8, ptr %13) #3
  store i32 1, ptr %7, align 4
  br label %82

79:                                               ; preds = %67
  call void @llvm.lifetime.start.p0(i64 8, ptr %15) #3
  %80 = load ptr, ptr %4, align 8, !tbaa !16
  %81 = getelementptr inbounds i8, ptr %80, i64 5
  store ptr %81, ptr %15, align 8, !tbaa !16
  call void @_ZNSt4pairIPKciEC2IS1_RjTnNSt9enable_ifIXaaclsr5_PCCPE22_MoveConstructiblePairIT_T0_EEclsr5_PCCPE30_ImplicitlyMoveConvertiblePairIS6_S7_EEEbE4typeELb1EEEOS6_OS7_(ptr noundef nonnull align 8 dereferenceable(12) %3, ptr noundef nonnull align 8 dereferenceable(8) %15, ptr noundef nonnull align 4 dereferenceable(4) %5)
  call void @llvm.lifetime.end.p0(i64 8, ptr %15) #3
  store i32 1, ptr %7, align 4
  br label %82

82:                                               ; preds = %79, %78, %66
  call void @llvm.lifetime.end.p0(i64 4, ptr %10) #3
  br label %83

83:                                               ; preds = %82, %54
  %84 = load { ptr, i32 }, ptr %3, align 8
  ret { ptr, i32 } %84

85:                                               ; preds = %54
  unreachable
}